target datalayout = "e-m:e-p270:32:32-p271:32:32-p272:64:64-i64:64-i128:128-f80:128-n8:16:32:64-S128"
target triple = "x86_64-pc-linux-gnu"

@hf_h264_nal_hdr_ext_svc = internal global i32 0, align 4
@hf_h264_nal_hdr_ext_i = internal global i32 0, align 4
@hf_h264_nal_hdr_ext_prid = internal global i32 0, align 4
@hf_h264_nal_hdr_ext_n = internal global i32 0, align 4
@hf_h264_nal_hdr_ext_did = internal global i32 0, align 4
@hf_h264_nal_hdr_ext_qid = internal global i32 0, align 4
@hf_h264_nal_hdr_ext_tid = internal global i32 0, align 4
@hf_h264_nal_hdr_ext_u = internal global i32 0, align 4
@hf_h264_nal_hdr_ext_d = internal global i32 0, align 4
@hf_h264_nal_hdr_ext_o = internal global i32 0, align 4
@hf_h264_nal_hdr_ext_rr = internal global i32 0, align 4

; Function Attrs: null_pointer_is_valid sspstrong uwtable
define internal i32 @dissect_h264_svc_nal_header_extension(ptr noundef %0, ptr noundef %1, ptr noundef %2, i32 noundef %3) #0 {
  %5 = alloca ptr, align 8
  %6 = alloca ptr, align 8
  %7 = alloca ptr, align 8
  %8 = alloca i32, align 4
  store ptr %0, ptr %5, align 8
  store ptr %1, ptr %6, align 8
  store ptr %2, ptr %7, align 8
  store i32 %3, ptr %8, align 4
  %9 = load ptr, ptr %5, align 8
  %10 = load i32, ptr @hf_h264_nal_hdr_ext_svc, align 4
  %11 = load ptr, ptr %6, align 8
  %12 = load i32, ptr %8, align 4
  %13 = call ptr @proto_tree_add_item(ptr noundef %9, i32 noundef %10, ptr noundef %11, i32 noundef %12, i32 noundef 1, i32 noundef 0)
  %14 = load ptr, ptr %5, align 8
  %15 = load i32, ptr @hf_h264_nal_hdr_ext_i, align 4
  %16 = load ptr, ptr %6, align 8
  %17 = load i32, ptr %8, align 4
  %18 = call ptr @proto_tree_add_item(ptr noundef %14, i32 noundef %15, ptr noundef %16, i32 noundef %17, i32 noundef 1, i32 noundef 0)
  %19 = load ptr, ptr %5, align 8
  %20 = load i32, ptr @hf_h264_nal_hdr_ext_prid, align 4
  %21 = load ptr, ptr %6, align 8
  %22 = load i32, ptr %8, align 4
  %23 = call ptr @proto_tree_add_item(ptr noundef %19, i32 noundef %20, ptr noundef %21, i32 noundef %22, i32 noundef 1, i32 noundef 0)
  %24 = load ptr, ptr %5, align 8
  %25 = load i32, ptr @hf_h264_nal_hdr_ext_n, align 4
  %26 = load ptr, ptr %6, align 8
  %27 = load i32, ptr %8, align 4
  %28 = add i32 %27, 1
  %29 = call ptr @proto_tree_add_item(ptr noundef %24, i32 noundef %25, ptr noundef %26, i32 noundef %28, i32 noundef 1, i32 noundef 0)
  %30 = load ptr, ptr %5, align 8
  %31 = load i32, ptr @hf_h264_nal_hdr_ext_did, align 4
  %32 = load ptr, ptr %6, align 8
  %33 = load i32, ptr %8, align 4
  %34 = add i32 %33, 1
  %35 = call ptr @proto_tree_add_item(ptr noundef %30, i32 noundef %31, ptr noundef %32, i32 noundef %34, i32 noundef 1, i32 noundef 0)
  %36 = load ptr, ptr %5, align 8
  %37 = load i32, ptr @hf_h264_nal_hdr_ext_qid, align 4
  %38 = load ptr, ptr %6, align 8
  %39 = load i32, ptr %8, align 4
  %40 = add i32 %39, 1
  %41 = call ptr @proto_tree_add_item(ptr noundef %36, i32 noundef %37, ptr noundef %38, i32 noundef %40, i32 noundef 1, i32 noundef 0)
  %42 = load ptr, ptr %5, align 8
  %43 = load i32, ptr @hf_h264_nal_hdr_ext_tid, align 4
  %44 = load ptr, ptr %6, align 8
  %45 = load i32, ptr %8, align 4
  %46 = add i32 %45, 2
  %47 = call ptr @proto_tree_add_item(ptr noundef %42, i32 noundef %43, ptr noundef %44, i32 noundef %46, i32 noundef 1, i32 noundef 0)
  %48 = load ptr, ptr %5, align 8
  %49 = load i32, ptr @hf_h264_nal_hdr_ext_u, align 4
  %50 = load ptr, ptr %6, align 8
  %51 = load i32, ptr %8, align 4
  %52 = add i32 %51, 2
  %53 = call ptr @proto_tree_add_item(ptr noundef %48, i32 noundef %49, ptr noundef %50, i32 noundef %52, i32 noundef 1, i32 noundef 0)
  %54 = load ptr, ptr %5, align 8
  %55 = load i32, ptr @hf_h264_nal_hdr_ext_d, align 4
  %56 = load ptr, ptr %6, align 8
  %57 = load i32, ptr %8, align 4
  %58 = add i32 %57, 2
  %59 = call ptr @proto_tree_add_item(ptr noundef %54, i32 noundef %55, ptr noundef %56, i32 noundef %58, i32 noundef 1, i32 noundef 0)
  %60 = load ptr, ptr %5, align 8
  %61 = load i32, ptr @hf_h264_nal_hdr_ext_o, align 4
  %62 = load ptr, ptr %6, align 8
  %63 = load i32, ptr %8, align 4
  %64 = add i32 %63, 2
  %65 = call ptr @proto_tree_add_item(ptr noundef %60, i32 noundef %61, ptr noundef %62, i32 noundef %64, i32 noundef 1, i32 noundef 0)
  %66 = load ptr, ptr %5, align 8
  %67 = load i32, ptr @hf_h264_nal_hdr_ext_rr, align 4
  %68 = load ptr, ptr %6, align 8
  %69 = load i32, ptr %8, align 4
  %70 = add i32 %69, 2
  %71 = call ptr @proto_tree_add_item(ptr noundef %66, i32 noundef %67, ptr noundef %68, i32 noundef %70, i32 noundef 1, i32 noundef 0)
  %72 = load i32, ptr %8, align 4
  %73 = add i32 %72, 3
  ret i32 %73
}