; Function Attrs: null_pointer_is_valid sspstrong uwtable
define internal fastcc range(i32 3, 6) i32 @dissect_h264_svc_nal_header_extension(ptr noundef %0, ptr noundef %1, i32 noundef range(i32 0, 3) %2) unnamed_addr #0 {
  %4 = load i32, ptr @hf_h264_nal_hdr_ext_svc, align 4
  %5 = tail call ptr @proto_tree_add_item(ptr noundef %0, i32 noundef %4, ptr noundef %1, i32 noundef %2, i32 noundef 1, i32 noundef 0)
  %6 = load i32, ptr @hf_h264_nal_hdr_ext_i, align 4
  %7 = tail call ptr @proto_tree_add_item(ptr noundef %0, i32 noundef %6, ptr noundef %1, i32 noundef %2, i32 noundef 1, i32 noundef 0)
  %8 = load i32, ptr @hf_h264_nal_hdr_ext_prid, align 4
  %9 = tail call ptr @proto_tree_add_item(ptr noundef %0, i32 noundef %8, ptr noundef %1, i32 noundef %2, i32 noundef 1, i32 noundef 0)
  %10 = load i32, ptr @hf_h264_nal_hdr_ext_n, align 4
  %11 = add nuw nsw i32 %2, 1
  %12 = tail call ptr @proto_tree_add_item(ptr noundef %0, i32 noundef %10, ptr noundef %1, i32 noundef %11, i32 noundef 1, i32 noundef 0)
  %13 = load i32, ptr @hf_h264_nal_hdr_ext_did, align 4
  %14 = tail call ptr @proto_tree_add_item(ptr noundef %0, i32 noundef %13, ptr noundef %1, i32 noundef %11, i32 noundef 1, i32 noundef 0)
  %15 = load i32, ptr @hf_h264_nal_hdr_ext_qid, align 4
  %16 = tail call ptr @proto_tree_add_item(ptr noundef %0, i32 noundef %15, ptr noundef %1, i32 noundef %11, i32 noundef 1, i32 noundef 0)
  %17 = load i32, ptr @hf_h264_nal_hdr_ext_tid, align 4
  %18 = add nuw nsw i32 %2, 2
  %19 = tail call ptr @proto_tree_add_item(ptr noundef %0, i32 noundef %17, ptr noundef %1, i32 noundef %18, i32 noundef 1, i32 noundef 0)
  %20 = load i32, ptr @hf_h264_nal_hdr_ext_u, align 4
  %21 = tail call ptr @proto_tree_add_item(ptr noundef %0, i32 noundef %20, ptr noundef %1, i32 noundef %18, i32 noundef 1, i32 noundef 0)
  %22 = load i32, ptr @hf_h264_nal_hdr_ext_d, align 4
  %23 = tail call ptr @proto_tree_add_item(ptr noundef %0, i32 noundef %22, ptr noundef %1, i32 noundef %18, i32 noundef 1, i32 noundef 0)
  %24 = load i32, ptr @hf_h264_nal_hdr_ext_o, align 4
  %25 = tail call ptr @proto_tree_add_item(ptr noundef %0, i32 noundef %24, ptr noundef %1, i32 noundef %18, i32 noundef 1, i32 noundef 0)
  %26 = load i32, ptr @hf_h264_nal_hdr_ext_rr, align 4
  %27 = tail call ptr @proto_tree_add_item(ptr noundef %0, i32 noundef %26, ptr noundef %1, i32 noundef %18, i32 noundef 1, i32 noundef 0)
  %28 = add nuw nsw i32 %2, 3
  ret i32 %28
}